Certificate:
    Data:
        Version: 3 (0x2)
        Serial Number: 1 (0x1)
        Signature Algorithm: md5WithRSAEncryption
        Issuer: C=CN, ST=CN, L=ChongQing, O=Horus, CN=Horus CA/emailAddress=horus@4--2.net
        Validity
            Not Before: Apr 18 21:28:14 2009 GMT
            Not After : Apr 16 21:28:14 2019 GMT
        Subject: C=CN, ST=CN, L=ChongQing, O=Horus, CN=Horus/emailAddress=horus@4--2.net
        Subject Public Key Info:
            Public Key Algorithm: rsaEncryption
            RSA Public Key: (1024 bit)
                Modulus (1024 bit):
                    00:ce:1f:fb:1a:2a:83:eb:08:70:33:0e:96:2c:aa:
                    a8:8b:0a:7f:ff:ea:53:77:27:a4:6f:02:49:9f:64:
                    25:61:44:27:24:15:bf:6d:b3:57:e1:6c:23:b8:6b:
                    fe:1b:67:c1:08:dc:59:5e:3d:4f:69:9c:2f:2b:c1:
                    77:a8:a2:59:9d:9b:8a:f6:66:4d:af:91:64:02:84:
                    4d:d0:d3:f8:b0:07:87:b0:cb:1b:35:32:de:23:5b:
                    09:f1:74:5e:70:b1:a7:94:df:3a:f9:36:8b:93:1b:
                    7b:13:d0:4a:bb:ce:ef:32:d7:cb:8a:99:59:99:dd:
                    9f:bb:82:a0:bf:ca:94:25:47
                Exponent: 65537 (0x10001)
        X509v3 extensions:
            X509v3 Basic Constraints: 
                CA:FALSE
            Netscape Cert Type: 
                SSL Server
            Netscape Comment: 
                OpenSSL Generated Server Certificate
            X509v3 Subject Key Identifier: 
                86:8F:84:E3:3F:81:BB:54:7C:8F:39:AA:A6:CF:45:18:0C:93:DF:44
            X509v3 Authority Key Identifier: 
                keyid:A4:76:C4:82:30:AC:0F:0C:50:30:DA:7D:37:F2:96:77:C6:9F:90:3C
                DirName:/C=CN/ST=CN/L=ChongQing/O=Horus/CN=Horus CA/emailAddress=horus@4--2.net
                serial:EE:42:CB:2A:6B:10:C0:B7

            X509v3 Extended Key Usage: 
                TLS Web Server Authentication
            X509v3 Key Usage: 
                Digital Signature, Key Encipherment
    Signature Algorithm: md5WithRSAEncryption
        44:91:f0:3d:3d:54:66:c9:65:c9:93:c6:70:79:a0:7d:3f:fb:
        7c:10:ea:2e:64:73:07:5e:2f:0b:20:ee:26:b4:3d:d2:78:fb:
        ec:c8:1d:92:ce:ac:8a:60:21:d1:05:86:20:26:39:82:77:17:
        3e:b2:41:b4:8e:3a:03:4a:61:bc:22:1d:14:6f:c0:d2:ca:6a:
        e1:d2:45:cc:b3:e2:38:de:fb:45:a4:d2:3b:22:aa:df:c4:b5:
        09:f7:84:2a:3e:f1:ae:84:d6:6a:bf:8b:05:cf:c8:f7:da:48:
        ba:73:54:7a:60:d0:c9:1f:e9:16:59:f6:3f:39:8c:ab:96:45:
        bc:99
-----BEGIN CERTIFICATE-----
MIIDkjCCAvugAwIBAgIBATANBgkqhkiG9w0BAQQFADBwMQswCQYDVQQGEwJDTjEL
MAkGA1UECBMCQ04xEjAQBgNVBAcTCUNob25nUWluZzEOMAwGA1UEChMFSG9ydXMx
ETAPBgNVBAMTCEhvcnVzIENBMR0wGwYJKoZIhvcNAQkBFg5ob3J1c0A0LS0yLm5l
dDAeFw0wOTA0MTgyMTI4MTRaFw0xOTA0MTYyMTI4MTRaMG0xCzAJBgNVBAYTAkNO
MQswCQYDVQQIEwJDTjESMBAGA1UEBxMJQ2hvbmdRaW5nMQ4wDAYDVQQKEwVIb3J1
czEOMAwGA1UEAxMFSG9ydXMxHTAbBgkqhkiG9w0BCQEWDmhvcnVzQDQtLTIubmV0
MIGfMA0GCSqGSIb3DQEBAQUAA4GNADCBiQKBgQDOH/saKoPrCHAzDpYsqqiLCn//
6lN3J6RvAkmfZCVhRCckFb9ts1fhbCO4a/4bZ8EI3FlePU9pnC8rwXeoolmdm4r2
Zk2vkWQChE3Q0/iwB4ewyxs1Mt4jWwnxdF5wsaeU3zr5NouTG3sT0Eq7zu8y18uK
mVmZ3Z+7gqC/ypQlRwIDAQABo4IBPTCCATkwCQYDVR0TBAIwADARBglghkgBhvhC
AQEEBAMCBkAwMwYJYIZIAYb4QgENBCYWJE9wZW5TU0wgR2VuZXJhdGVkIFNlcnZl
ciBDZXJ0aWZpY2F0ZTAdBgNVHQ4EFgQUho+E4z+Bu1R8jzmqps9FGAyT30QwgaIG
A1UdIwSBmjCBl4AUpHbEgjCsDwxQMNp9N/KWd8afkDyhdKRyMHAxCzAJBgNVBAYT
AkNOMQswCQYDVQQIEwJDTjESMBAGA1UEBxMJQ2hvbmdRaW5nMQ4wDAYDVQQKEwVI
b3J1czERMA8GA1UEAxMISG9ydXMgQ0ExHTAbBgkqhkiG9w0BCQEWDmhvcnVzQDQt
LTIubmV0ggkA7kLLKmsQwLcwEwYDVR0lBAwwCgYIKwYBBQUHAwEwCwYDVR0PBAQD
AgWgMA0GCSqGSIb3DQEBBAUAA4GBAESR8D09VGbJZcmTxnB5oH0/+3wQ6i5kcwde
Lwsg7ia0PdJ4++zIHZLOrIpgIdEFhiAmOYJ3Fz6yQbSOOgNKYbwiHRRvwNLKauHS
Rcyz4jje+0Wk0jsiqt/EtQn3hCo+8a6E1mq/iwXPyPfaSLpzVHpg0Mkf6RZZ9j85
jKuWRbyZ
-----END CERTIFICATE-----
